target datalayout = "e-m:e-p270:32:32-p271:32:32-p272:64:64-i64:64-i128:128-f80:128-n8:16:32:64-S128"
target triple = "x86_64-pc-linux-gnu"

%"class.LIEF::iterator_range" = type { %"class.LIEF::assembly::Instruction::Iterator", %"class.LIEF::assembly::Instruction::Iterator" }
%"class.LIEF::assembly::Instruction::Iterator" = type { %"class.std::unique_ptr.38" }
%"class.std::unique_ptr.38" = type { %"struct.std::__uniq_ptr_data.39" }
%"struct.std::__uniq_ptr_data.39" = type { %"class.std::__uniq_ptr_impl.40" }
%"class.std::__uniq_ptr_impl.40" = type { %"class.std::tuple.41" }
%"class.std::tuple.41" = type { %"struct.std::_Tuple_impl.42" }
%"struct.std::_Tuple_impl.42" = type { %"struct.std::_Head_base.45" }
%"struct.std::_Head_base.45" = type { ptr }
%"struct.fmt::v10::runtime_format_string" = type { %"class.fmt::v10::basic_string_view" }
%"class.fmt::v10::basic_string_view" = type { ptr, i64 }
%"class.LIEF::logging::Logger" = type { %"class.std::shared_ptr" }
%"class.std::shared_ptr" = type { %"class.std::__shared_ptr" }
%"class.std::__shared_ptr" = type { ptr, %"class.std::__shared_count" }
%"class.std::__shared_count" = type { ptr }
%"struct.spdlog::source_loc" = type { ptr, i32, ptr }
%"class.fmt::v10::basic_format_string.1185" = type { %"class.fmt::v10::basic_string_view" }

@.str = private unnamed_addr constant [135 x i8] c"Assembler/disassembler is not available for this build.\0APlease checkout https://lief.re/doc/latest/extended/intro.html for the details\00", align 1
@.str.2 = private unnamed_addr constant [5 x i8] c"LIEF\00", align 1

; Function Attrs: alwaysinline mustprogress nounwind uwtable
define linkonce_odr hidden { ptr, i64 } @_ZNK3fmt3v1019basic_format_stringIcJEEcvNS0_17basic_string_viewIcEEEv(ptr noundef nonnull align 8 dereferenceable(16) %0) #11 comdat align 2 {
  %2 = alloca %"class.fmt::v10::basic_string_view", align 8
  %3 = alloca ptr, align 8
  store ptr %0, ptr %3, align 8, !tbaa !1103
  %4 = load ptr, ptr %3, align 8
  %5 = getelementptr inbounds nuw %"class.fmt::v10::basic_format_string.1185", ptr %4, i32 0, i32 0
  call void @llvm.memcpy.p0.p0.i64(ptr align 8 %2, ptr align 8 %5, i64 16, i1 false), !tbaa.struct !425
  %6 = load { ptr, i64 }, ptr %2, align 8
  ret { ptr, i64 } %6
}

; Function Attrs: inlinehint mustprogress nounwind uwtable
define linkonce_odr hidden { ptr, i64 } @_ZN6spdlog7details14to_string_viewIcJEEEN3fmt3v1017basic_string_viewIT_EENS3_19basic_format_stringIS5_JDpT0_EEE(ptr %0, i64 %1) #5 comdat {
  %3 = alloca %"class.fmt::v10::basic_string_view", align 8
  %4 = alloca %"class.fmt::v10::basic_format_string.1185", align 8
  %5 = getelementptr inbounds nuw { ptr, i64 }, ptr %4, i32 0, i32 0
  store ptr %0, ptr %5, align 8
  %6 = getelementptr inbounds nuw { ptr, i64 }, ptr %4, i32 0, i32 1
  store i64 %1, ptr %6, align 8
  %7 = call { ptr, i64 } @_ZNK3fmt3v1019basic_format_stringIcJEEcvNS0_17basic_string_viewIcEEEv(ptr noundef nonnull align 8 dereferenceable(16) %4)
  %8 = getelementptr inbounds nuw { ptr, i64 }, ptr %3, i32 0, i32 0
  %9 = extractvalue { ptr, i64 } %7, 0
  store ptr %9, ptr %8, align 8
  %10 = getelementptr inbounds nuw { ptr, i64 }, ptr %3, i32 0, i32 1
  %11 = extractvalue { ptr, i64 } %7, 1
  store i64 %11, ptr %10, align 8
  %12 = load { ptr, i64 }, ptr %3, align 8
  ret { ptr, i64 } %12
}

; Function Attrs: mustprogress nounwind uwtable
define linkonce_odr hidden void @_ZN6spdlog6logger3logIJEEEvNS_10source_locENS_5level10level_enumEN3fmt3v1019basic_format_stringIcJDpNS6_13type_identityIT_E4typeEEEEDpOS9_(ptr noundef nonnull align 8 dereferenceable(208) %0, ptr noundef byval(%"struct.spdlog::source_loc") align 8 %1, i32 noundef %2, ptr %3, i64 %4) #1 comdat align 2 {
  %6 = alloca %"class.fmt::v10::basic_format_string.1185", align 8
  %7 = alloca ptr, align 8
  %8 = alloca i32, align 4
  %9 = alloca %"struct.spdlog::source_loc", align 8
  %10 = alloca %"class.fmt::v10::basic_string_view", align 8
  %11 = alloca %"class.fmt::v10::basic_format_string.1185", align 8
  %12 = getelementptr inbounds nuw { ptr, i64 }, ptr %6, i32 0, i32 0
  store ptr %3, ptr %12, align 8
  %13 = getelementptr inbounds nuw { ptr, i64 }, ptr %6, i32 0, i32 1
  store i64 %4, ptr %13, align 8
  store ptr %0, ptr %7, align 8, !tbaa !1091
  store i32 %2, ptr %8, align 4, !tbaa !1094
  %14 = load ptr, ptr %7, align 8
  call void @llvm.memcpy.p0.p0.i64(ptr align 8 %9, ptr align 8 %1, i64 24, i1 false), !tbaa.struct !1096
  %15 = load i32, ptr %8, align 4, !tbaa !1094
  call void @llvm.memcpy.p0.p0.i64(ptr align 8 %11, ptr align 8 %6, i64 16, i1 false), !tbaa.struct !425
  %16 = getelementptr inbounds nuw { ptr, i64 }, ptr %11, i32 0, i32 0
  %17 = load ptr, ptr %16, align 8
  %18 = getelementptr inbounds nuw { ptr, i64 }, ptr %11, i32 0, i32 1
  %19 = load i64, ptr %18, align 8
  %20 = call { ptr, i64 } @_ZN6spdlog7details14to_string_viewIcJEEEN3fmt3v1017basic_string_viewIT_EENS3_19basic_format_stringIS5_JDpT0_EEE(ptr %17, i64 %19)
  %21 = getelementptr inbounds nuw { ptr, i64 }, ptr %10, i32 0, i32 0
  %22 = extractvalue { ptr, i64 } %20, 0
  store ptr %22, ptr %21, align 8
  %23 = getelementptr inbounds nuw { ptr, i64 }, ptr %10, i32 0, i32 1
  %24 = extractvalue { ptr, i64 } %20, 1
  store i64 %24, ptr %23, align 8
  %25 = getelementptr inbounds nuw { ptr, i64 }, ptr %10, i32 0, i32 0
  %26 = load ptr, ptr %25, align 8
  %27 = getelementptr inbounds nuw { ptr, i64 }, ptr %10, i32 0, i32 1
  %28 = load i64, ptr %27, align 8
  call void @_ZN6spdlog6logger4log_IJEEEvNS_10source_locENS_5level10level_enumEN3fmt3v1017basic_string_viewIcEEDpOT_(ptr noundef nonnull align 8 dereferenceable(208) %14, ptr noundef byval(%"struct.spdlog::source_loc") align 8 %9, i32 noundef %15, ptr %26, i64 %28)
  ret void
}

; Function Attrs: mustprogress nounwind uwtable
define linkonce_odr hidden void @_ZN3fmt3v1019basic_format_stringIcJEEC2ENS0_21runtime_format_stringIcEE(ptr noundef nonnull align 8 dereferenceable(16) %0, ptr %1, i64 %2) unnamed_addr #1 comdat align 2 {
  %4 = alloca %"struct.fmt::v10::runtime_format_string", align 8
  %5 = alloca ptr, align 8
  %6 = getelementptr inbounds nuw { ptr, i64 }, ptr %4, i32 0, i32 0
  store ptr %1, ptr %6, align 8
  %7 = getelementptr inbounds nuw { ptr, i64 }, ptr %4, i32 0, i32 1
  store i64 %2, ptr %7, align 8
  store ptr %0, ptr %5, align 8, !tbaa !1103
  %8 = load ptr, ptr %5, align 8
  %9 = getelementptr inbounds nuw %"class.fmt::v10::basic_format_string.1185", ptr %8, i32 0, i32 0
  %10 = getelementptr inbounds nuw %"struct.fmt::v10::runtime_format_string", ptr %4, i32 0, i32 0
  call void @llvm.memcpy.p0.p0.i64(ptr align 8 %9, ptr align 8 %10, i64 16, i1 false), !tbaa.struct !425
  ret void
}

; Function Attrs: mustprogress nounwind uwtable
define linkonce_odr hidden void @_ZN6spdlog10source_locC2Ev(ptr noundef nonnull align 8 dereferenceable(24) %0) unnamed_addr #1 comdat align 2 {
  %2 = alloca ptr, align 8
  store ptr %0, ptr %2, align 8, !tbaa !1097
  %3 = load ptr, ptr %2, align 8
  %4 = getelementptr inbounds nuw %"struct.spdlog::source_loc", ptr %3, i32 0, i32 0
  store ptr null, ptr %4, align 8, !tbaa !1099
  %5 = getelementptr inbounds nuw %"struct.spdlog::source_loc", ptr %3, i32 0, i32 1
  store i32 0, ptr %5, align 8, !tbaa !1101
  %6 = getelementptr inbounds nuw %"struct.spdlog::source_loc", ptr %3, i32 0, i32 2
  store ptr null, ptr %6, align 8, !tbaa !1102
  ret void
}

; Function Attrs: mustprogress nounwind uwtable
define linkonce_odr hidden noundef ptr @_ZNKSt12__shared_ptrIN6spdlog6loggerELN9__gnu_cxx12_Lock_policyE2EE3getEv(ptr noundef nonnull align 8 dereferenceable(16) %0) #1 comdat align 2 {
  %2 = alloca ptr, align 8
  store ptr %0, ptr %2, align 8, !tbaa !1084
  %3 = load ptr, ptr %2, align 8
  %4 = getelementptr inbounds nuw %"class.std::__shared_ptr", ptr %3, i32 0, i32 0
  %5 = load ptr, ptr %4, align 8, !tbaa !1086
  ret ptr %5
}

; Function Attrs: mustprogress nounwind uwtable
define linkonce_odr hidden void @_ZN6spdlog6logger3logIN3fmt3v1021runtime_format_stringIcEEEEvNS_5level10level_enumERKT_(ptr noundef nonnull align 8 dereferenceable(208) %0, i32 noundef %1, ptr noundef nonnull align 8 dereferenceable(16) %2) #1 comdat align 2 {
  %4 = alloca ptr, align 8
  %5 = alloca i32, align 4
  %6 = alloca ptr, align 8
  %7 = alloca %"struct.spdlog::source_loc", align 8
  %8 = alloca %"class.fmt::v10::basic_format_string.1185", align 8
  %9 = alloca %"struct.fmt::v10::runtime_format_string", align 8
  store ptr %0, ptr %4, align 8, !tbaa !1091
  store i32 %1, ptr %5, align 4, !tbaa !1094
  store ptr %2, ptr %6, align 8, !tbaa !1092
  %10 = load ptr, ptr %4, align 8
  call void @llvm.memset.p0.i64(ptr align 8 %7, i8 0, i64 24, i1 false)
  call void @_ZN6spdlog10source_locC2Ev(ptr noundef nonnull align 8 dereferenceable(24) %7) #4
  %11 = load i32, ptr %5, align 4, !tbaa !1094
  %12 = load ptr, ptr %6, align 8, !tbaa !1092
  call void @llvm.memcpy.p0.p0.i64(ptr align 8 %9, ptr align 8 %12, i64 16, i1 false), !tbaa.struct !425
  %13 = getelementptr inbounds nuw { ptr, i64 }, ptr %9, i32 0, i32 0
  %14 = load ptr, ptr %13, align 8
  %15 = getelementptr inbounds nuw { ptr, i64 }, ptr %9, i32 0, i32 1
  %16 = load i64, ptr %15, align 8
  call void @_ZN3fmt3v1019basic_format_stringIcJEEC2ENS0_21runtime_format_stringIcEE(ptr noundef nonnull align 8 dereferenceable(16) %8, ptr %14, i64 %16)
  %17 = getelementptr inbounds nuw { ptr, i64 }, ptr %8, i32 0, i32 0
  %18 = load ptr, ptr %17, align 8
  %19 = getelementptr inbounds nuw { ptr, i64 }, ptr %8, i32 0, i32 1
  %20 = load i64, ptr %19, align 8
  call void @_ZN6spdlog6logger3logIJEEEvNS_10source_locENS_5level10level_enumEN3fmt3v1019basic_format_stringIcJDpNS6_13type_identityIT_E4typeEEEEDpOS9_(ptr noundef nonnull align 8 dereferenceable(208) %10, ptr noundef byval(%"struct.spdlog::source_loc") align 8 %7, i32 noundef %11, ptr %18, i64 %20)
  ret void
}

; Function Attrs: mustprogress nounwind uwtable
define linkonce_odr hidden noundef i64 @_ZNSt11char_traitsIcE6lengthEPKc(ptr noundef %0) #1 comdat align 2 {
  %2 = alloca ptr, align 8
  store ptr %0, ptr %2, align 8, !tbaa !11
  %3 = load ptr, ptr %2, align 8, !tbaa !11
  %4 = call i64 @strlen(ptr noundef %3) #4
  ret i64 %4
}

; Function Attrs: mustprogress nounwind uwtable
define linkonce_odr hidden noundef ptr @_ZNKSt19__shared_ptr_accessIN6spdlog6loggerELN9__gnu_cxx12_Lock_policyE2ELb0ELb0EE6_M_getEv(ptr noundef nonnull align 1 dereferenceable(1) %0) #1 comdat align 2 {
  %2 = alloca ptr, align 8
  store ptr %0, ptr %2, align 8, !tbaa !3
  %3 = load ptr, ptr %2, align 8
  %4 = call noundef ptr @_ZNKSt12__shared_ptrIN6spdlog6loggerELN9__gnu_cxx12_Lock_policyE2EE3getEv(ptr noundef nonnull align 8 dereferenceable(16) %3) #4
  ret ptr %4
}

; Function Attrs: mustprogress nounwind uwtable
define linkonce_odr hidden void @_ZN6spdlog6logger5errorIN3fmt3v1021runtime_format_stringIcEEEEvRKT_(ptr noundef nonnull align 8 dereferenceable(208) %0, ptr noundef nonnull align 8 dereferenceable(16) %1) #1 comdat align 2 {
  %3 = alloca ptr, align 8
  %4 = alloca ptr, align 8
  store ptr %0, ptr %3, align 8, !tbaa !1091
  store ptr %1, ptr %4, align 8, !tbaa !1092
  %5 = load ptr, ptr %3, align 8
  %6 = load ptr, ptr %4, align 8, !tbaa !1092
  call void @_ZN6spdlog6logger3logIN3fmt3v1021runtime_format_stringIcEEEEvNS_5level10level_enumERKT_(ptr noundef nonnull align 8 dereferenceable(208) %5, i32 noundef 4, ptr noundef nonnull align 8 dereferenceable(16) %6)
  ret void
}

; Function Attrs: inlinehint mustprogress nounwind uwtable
define linkonce_odr hidden { ptr, i64 } @_ZN3fmt3v107runtimeENS0_17basic_string_viewIcEE(ptr %0, i64 %1) #5 comdat {
  %3 = alloca %"struct.fmt::v10::runtime_format_string", align 8
  %4 = alloca %"class.fmt::v10::basic_string_view", align 8
  %5 = getelementptr inbounds nuw { ptr, i64 }, ptr %4, i32 0, i32 0
  store ptr %0, ptr %5, align 8
  %6 = getelementptr inbounds nuw { ptr, i64 }, ptr %4, i32 0, i32 1
  store i64 %1, ptr %6, align 8
  %7 = getelementptr inbounds nuw %"struct.fmt::v10::runtime_format_string", ptr %3, i32 0, i32 0
  call void @llvm.memcpy.p0.p0.i64(ptr align 8 %7, ptr align 8 %4, i64 16, i1 false), !tbaa.struct !425
  %8 = getelementptr inbounds nuw %"struct.fmt::v10::runtime_format_string", ptr %3, i32 0, i32 0
  %9 = load { ptr, i64 }, ptr %8, align 8
  ret { ptr, i64 } %9
}

; Function Attrs: alwaysinline mustprogress nounwind uwtable
define linkonce_odr hidden void @_ZN3fmt3v1017basic_string_viewIcEC2EPKc(ptr noundef nonnull align 8 dereferenceable(16) %0, ptr noundef %1) unnamed_addr #11 comdat align 2 {
  %3 = alloca ptr, align 8
  %4 = alloca ptr, align 8
  store ptr %0, ptr %3, align 8, !tbaa !388
  store ptr %1, ptr %4, align 8, !tbaa !11
  %5 = load ptr, ptr %3, align 8
  %6 = getelementptr inbounds nuw %"class.fmt::v10::basic_string_view", ptr %5, i32 0, i32 0
  %7 = load ptr, ptr %4, align 8, !tbaa !11
  store ptr %7, ptr %6, align 8, !tbaa !390
  %8 = getelementptr inbounds nuw %"class.fmt::v10::basic_string_view", ptr %5, i32 0, i32 1
  %9 = load ptr, ptr %4, align 8, !tbaa !11
  %10 = call noundef i64 @_ZNSt11char_traitsIcE6lengthEPKc(ptr noundef %9)
  store i64 %10, ptr %8, align 8, !tbaa !392
  ret void
}

; Function Attrs: mustprogress nounwind uwtable
define linkonce_odr hidden noundef ptr @_ZNKSt19__shared_ptr_accessIN6spdlog6loggerELN9__gnu_cxx12_Lock_policyE2ELb0ELb0EEptEv(ptr noundef nonnull align 1 dereferenceable(1) %0) #1 comdat align 2 {
  %2 = alloca ptr, align 8
  store ptr %0, ptr %2, align 8, !tbaa !3
  %3 = load ptr, ptr %2, align 8
  %4 = call noundef ptr @_ZNKSt19__shared_ptr_accessIN6spdlog6loggerELN9__gnu_cxx12_Lock_policyE2ELb0ELb0EE6_M_getEv(ptr noundef nonnull align 1 dereferenceable(1) %3) #4
  ret ptr %4
}

; Function Attrs: mustprogress nounwind uwtable
define linkonce_odr hidden void @_ZN4LIEF7logging6Logger3errIJEEEvPKcDpRKT_(ptr noundef nonnull align 8 dereferenceable(16) %0, ptr noundef %1) #1 comdat align 2 {
  %3 = alloca ptr, align 8
  %4 = alloca ptr, align 8
  %5 = alloca %"struct.fmt::v10::runtime_format_string", align 8
  %6 = alloca %"class.fmt::v10::basic_string_view", align 8
  store ptr %0, ptr %3, align 8, !tbaa !17
  store ptr %1, ptr %4, align 8, !tbaa !11
  %7 = load ptr, ptr %3, align 8
  %8 = getelementptr inbounds nuw %"class.LIEF::logging::Logger", ptr %7, i32 0, i32 0
  %9 = call noundef ptr @_ZNKSt19__shared_ptr_accessIN6spdlog6loggerELN9__gnu_cxx12_Lock_policyE2ELb0ELb0EEptEv(ptr noundef nonnull align 1 dereferenceable(1) %8) #4
  call void @llvm.lifetime.start.p0(i64 16, ptr %5) #4
  %10 = load ptr, ptr %4, align 8, !tbaa !11
  call void @_ZN3fmt3v1017basic_string_viewIcEC2EPKc(ptr noundef nonnull align 8 dereferenceable(16) %6, ptr noundef %10)
  %11 = getelementptr inbounds nuw { ptr, i64 }, ptr %6, i32 0, i32 0
  %12 = load ptr, ptr %11, align 8
  %13 = getelementptr inbounds nuw { ptr, i64 }, ptr %6, i32 0, i32 1
  %14 = load i64, ptr %13, align 8
  %15 = call { ptr, i64 } @_ZN3fmt3v107runtimeENS0_17basic_string_viewIcEE(ptr %12, i64 %14)
  %16 = getelementptr inbounds nuw %"struct.fmt::v10::runtime_format_string", ptr %5, i32 0, i32 0
  %17 = getelementptr inbounds nuw { ptr, i64 }, ptr %16, i32 0, i32 0
  %18 = extractvalue { ptr, i64 } %15, 0
  store ptr %18, ptr %17, align 8
  %19 = getelementptr inbounds nuw { ptr, i64 }, ptr %16, i32 0, i32 1
  %20 = extractvalue { ptr, i64 } %15, 1
  store i64 %20, ptr %19, align 8
  call void @_ZN6spdlog6logger5errorIN3fmt3v1021runtime_format_stringIcEEEEvRKT_(ptr noundef nonnull align 8 dereferenceable(208) %9, ptr noundef nonnull align 8 dereferenceable(16) %5)
  call void @llvm.lifetime.end.p0(i64 16, ptr %5) #4
  ret void
}

; Function Attrs: mustprogress nounwind uwtable
define linkonce_odr hidden noundef nonnull align 8 dereferenceable(16) ptr @_ZN4LIEF7logging6Logger8instanceEv() #1 comdat align 2 {
  %1 = call noundef nonnull align 8 dereferenceable(16) ptr @_ZN4LIEF7logging6Logger8instanceEPKc(ptr noundef @.str.2)
  ret ptr %1
}

; Function Attrs: mustprogress nounwind uwtable
define void @_ZNK4LIEF6Binary11disassembleERKNSt7__cxx1112basic_stringIcSt11char_traitsIcESaIcEEE(ptr dead_on_unwind noalias writable sret(%"class.LIEF::iterator_range") align 8 %0, ptr noundef nonnull align 8 dereferenceable(88) %1, ptr noundef nonnull align 8 dereferenceable(32) %2) #1 align 2 {
  %4 = alloca ptr, align 8
  %5 = alloca ptr, align 8
  %6 = alloca ptr, align 8
  store ptr %0, ptr %4, align 8
  store ptr %1, ptr %5, align 8, !tbaa !15
  store ptr %2, ptr %6, align 8, !tbaa !8
  %7 = call noundef nonnull align 8 dereferenceable(16) ptr @_ZN4LIEF7logging6Logger8instanceEv()
  call void @_ZN4LIEF7logging6Logger3errIJEEEvPKcDpRKT_(ptr noundef nonnull align 8 dereferenceable(16) %7, ptr noundef @.str)
  call void @_ZN4LIEF19make_empty_iteratorINS_8assembly11InstructionEEEDav(ptr dead_on_unwind writable sret(%"class.LIEF::iterator_range") align 8 %0)
  ret void
}