; Function Attrs: mustprogress nounwind uwtable
define void @_ZNK4LIEF6Binary11disassembleERKNSt7__cxx1112basic_stringIcSt11char_traitsIcESaIcEEE(ptr dead_on_unwind noalias writable sret(%"class.LIEF::iterator_range") align 8 %0, ptr noundef nonnull readnone align 8 captures(none) dereferenceable(88) %1, ptr noundef nonnull readnone align 8 captures(none) dereferenceable(32) %2) local_unnamed_addr #1 align 2 {
  %4 = alloca %"struct.spdlog::source_loc", align 8
  %5 = tail call noundef nonnull align 8 dereferenceable(16) ptr @_ZN4LIEF7logging6Logger8instanceEPKc(ptr noundef nonnull @.str.2) #26
  %6 = load ptr, ptr %5, align 8, !tbaa !3
  call void @llvm.lifetime.start.p0(i64 24, ptr nonnull %4)
  call void @llvm.memset.p0.i64(ptr noundef nonnull align 8 dereferenceable(24) %4, i8 0, i64 24, i1 false)
  tail call void @_ZN6spdlog6logger4log_IJEEEvNS_10source_locENS_5level10level_enumEN3fmt3v1017basic_string_viewIcEEDpOT_(ptr noundef nonnull align 8 dereferenceable(208) %6, ptr noundef nonnull byval(%"struct.spdlog::source_loc") align 8 %4, i32 noundef 4, ptr nonnull @.str, i64 134)
  call void @llvm.lifetime.end.p0(i64 24, ptr nonnull %4)
  tail call void @_ZN4LIEF19make_empty_iteratorINS_8assembly11InstructionEEEDav(ptr dead_on_unwind writable sret(%"class.LIEF::iterator_range") align 8 %0)
  ret void
}